; ModuleID = '7/282.c'
source_filename = "7/282.c"
target datalayout = "e-m:e-p270:32:32-p271:32:32-p272:64:64-i64:64-f80:128-n8:16:32:64-S128"
target triple = "x86_64-pc-linux-gnu"

@.str = private unnamed_addr constant [9 x i8] c"%s\0A%s\0A%s\00", align 1
@.str.1 = private unnamed_addr constant [3 x i8] c"%s\00", align 1

; Function Attrs: noinline nounwind uwtable
define dso_local i32 @main() #0 {
  %1 = alloca i32, align 4
  %2 = alloca [256 x i8], align 16
  %3 = alloca [256 x i8], align 16
  %4 = alloca [256 x i8], align 16
  %5 = alloca i32, align 4
  %6 = alloca i32, align 4
  %7 = alloca i32, align 4
  %8 = alloca i32, align 4
  store i32 0, i32* %1, align 4
  %9 = getelementptr inbounds [256 x i8], [256 x i8]* %2, i64 0, i64 0
  %10 = getelementptr inbounds [256 x i8], [256 x i8]* %3, i64 0, i64 0
  %11 = getelementptr inbounds [256 x i8], [256 x i8]* %4, i64 0, i64 0
  %12 = call i32 (i8*, ...) @__isoc99_scanf(i8* getelementptr inbounds ([9 x i8], [9 x i8]* @.str, i64 0, i64 0), i8* %9, i8* %10, i8* %11)
  %13 = getelementptr inbounds [256 x i8], [256 x i8]* %3, i64 0, i64 0
  %14 = call i64 @strlen(i8* %13) #3
  %15 = trunc i64 %14 to i32
  store i32 %15, i32* %5, align 4
  store i32 0, i32* %6, align 4
  br label %16

16:                                               ; preds = %81, %0
  %17 = load i32, i32* %6, align 4
  %18 = sext i32 %17 to i64
  %19 = getelementptr inbounds [256 x i8], [256 x i8]* %2, i64 0, i64 0
  %20 = call i64 @strlen(i8* %19) #3
  %21 = load i32, i32* %5, align 4
  %22 = sext i32 %21 to i64
  %23 = sub i64 %20, %22
  %24 = add i64 %23, 1
  %25 = icmp ult i64 %18, %24
  br i1 %25, label %26, label %84

26:                                               ; preds = %16
  store i32 0, i32* %8, align 4
  %27 = load i32, i32* %6, align 4
  store i32 %27, i32* %7, align 4
  br label %28

28:                                               ; preds = %52, %26
  %29 = load i32, i32* %7, align 4
  %30 = load i32, i32* %6, align 4
  %31 = load i32, i32* %5, align 4
  %32 = add nsw i32 %30, %31
  %33 = icmp slt i32 %29, %32
  br i1 %33, label %34, label %55

34:                                               ; preds = %28
  %35 = load i32, i32* %7, align 4
  %36 = sext i32 %35 to i64
  %37 = getelementptr inbounds [256 x i8], [256 x i8]* %2, i64 0, i64 %36
  %38 = load i8, i8* %37, align 1
  %39 = sext i8 %38 to i32
  %40 = load i32, i32* %7, align 4
  %41 = load i32, i32* %6, align 4
  %42 = sub nsw i32 %40, %41
  %43 = sext i32 %42 to i64
  %44 = getelementptr inbounds [256 x i8], [256 x i8]* %3, i64 0, i64 %43
  %45 = load i8, i8* %44, align 1
  %46 = sext i8 %45 to i32
  %47 = icmp ne i32 %39, %46
  br i1 %47, label %48, label %51

48:                                               ; preds = %34
  %49 = load i32, i32* %8, align 4
  %50 = add nsw i32 %49, 1
  store i32 %50, i32* %8, align 4
  br label %51

51:                                               ; preds = %48, %34
  br label %52

52:                                               ; preds = %51
  %53 = load i32, i32* %7, align 4
  %54 = add nsw i32 %53, 1
  store i32 %54, i32* %7, align 4
  br label %28

55:                                               ; preds = %28
  %56 = load i32, i32* %8, align 4
  %57 = icmp eq i32 %56, 0
  br i1 %57, label %58, label %80

58:                                               ; preds = %55
  %59 = load i32, i32* %6, align 4
  store i32 %59, i32* %7, align 4
  br label %60

60:                                               ; preds = %76, %58
  %61 = load i32, i32* %7, align 4
  %62 = load i32, i32* %6, align 4
  %63 = load i32, i32* %5, align 4
  %64 = add nsw i32 %62, %63
  %65 = icmp slt i32 %61, %64
  br i1 %65, label %66, label %79

66:                                               ; preds = %60
  %67 = load i32, i32* %7, align 4
  %68 = load i32, i32* %6, align 4
  %69 = sub nsw i32 %67, %68
  %70 = sext i32 %69 to i64
  %71 = getelementptr inbounds [256 x i8], [256 x i8]* %4, i64 0, i64 %70
  %72 = load i8, i8* %71, align 1
  %73 = load i32, i32* %7, align 4
  %74 = sext i32 %73 to i64
  %75 = getelementptr inbounds [256 x i8], [256 x i8]* %2, i64 0, i64 %74
  store i8 %72, i8* %75, align 1
  br label %76

76:                                               ; preds = %66
  %77 = load i32, i32* %7, align 4
  %78 = add nsw i32 %77, 1
  store i32 %78, i32* %7, align 4
  br label %60

79:                                               ; preds = %60
  br label %84

80:                                               ; preds = %55
  br label %81

81:                                               ; preds = %80
  %82 = load i32, i32* %6, align 4
  %83 = add nsw i32 %82, 1
  store i32 %83, i32* %6, align 4
  br label %16

84:                                               ; preds = %79, %16
  %85 = getelementptr inbounds [256 x i8], [256 x i8]* %2, i64 0, i64 0
  %86 = call i32 (i8*, ...) @printf(i8* getelementptr inbounds ([3 x i8], [3 x i8]* @.str.1, i64 0, i64 0), i8* %85)
  ret i32 0
}

declare dso_local i32 @__isoc99_scanf(i8*, ...) #1

; Function Attrs: nounwind readonly
declare dso_local i64 @strlen(i8*) #2

declare dso_local i32 @printf(i8*, ...) #1


!llvm.module.flags = !{!0}
!llvm.ident = !{!1}

!0 = !{i32 1, !"wchar_size", i32 4}
!1 = !{!"clang version 10.0.0-4ubuntu1 "}
